target datalayout = "e-m:e-p270:32:32-p271:32:32-p272:64:64-i64:64-i128:128-f80:128-n8:16:32:64-S128"
target triple = "x86_64-pc-linux-gnu"

%struct.ggml_backend_device = type { %struct.ggml_backend_device_i, ptr, ptr }
%struct.ggml_backend_device_i = type { ptr, ptr, ptr, ptr, ptr, ptr, ptr, ptr, ptr, ptr, ptr, ptr, ptr, ptr, ptr }
%struct.ggml_backend_event = type { ptr, ptr }
%struct.ggml_hash_set = type { i64, ptr, ptr }
%struct.ggml_backend_sched = type { i8, i8, i32, [16 x ptr], [16 x ptr], ptr, %struct.ggml_hash_set, ptr, ptr, ptr, ptr, ptr, ptr, %struct.ggml_cgraph, ptr, i32, i32, i32, i32, [16 x [4 x ptr]], [10 x ptr], i32, ptr, ptr, ptr, ptr, i64, i32 }
%struct.ggml_cgraph = type { i32, i32, i32, ptr, ptr, ptr, ptr, %struct.ggml_hash_set, i32 }

; Function Attrs: mustprogress uwtable
define void @ggml_backend_event_free(ptr noundef %0) #0 {
  %2 = alloca ptr, align 8
  store ptr %0, ptr %2, align 8, !tbaa !93
  %3 = load ptr, ptr %2, align 8, !tbaa !93
  %4 = icmp eq ptr %3, null
  br i1 %4, label %5, label %6

5:                                                ; preds = %1
  br label %17

6:                                                ; preds = %1
  %7 = load ptr, ptr %2, align 8, !tbaa !93
  %8 = getelementptr inbounds nuw %struct.ggml_backend_event, ptr %7, i32 0, i32 0
  %9 = load ptr, ptr %8, align 8, !tbaa !95
  %10 = getelementptr inbounds nuw %struct.ggml_backend_device, ptr %9, i32 0, i32 0
  %11 = getelementptr inbounds nuw %struct.ggml_backend_device_i, ptr %10, i32 0, i32 13
  %12 = load ptr, ptr %11, align 8, !tbaa !97
  %13 = load ptr, ptr %2, align 8, !tbaa !93
  %14 = getelementptr inbounds nuw %struct.ggml_backend_event, ptr %13, i32 0, i32 0
  %15 = load ptr, ptr %14, align 8, !tbaa !95
  %16 = load ptr, ptr %2, align 8, !tbaa !93
  call void %12(ptr noundef %15, ptr noundef %16)
  br label %17

17:                                               ; preds = %6, %5
  ret void
}

; Function Attrs: mustprogress uwtable
define void @ggml_backend_sched_free(ptr noundef %0) #0 {
  %2 = alloca ptr, align 8
  %3 = alloca i32, align 4
  %4 = alloca i32, align 4
  %5 = alloca i32, align 4
  store ptr %0, ptr %2, align 8, !tbaa !131
  %6 = load ptr, ptr %2, align 8, !tbaa !131
  %7 = icmp eq ptr %6, null
  br i1 %7, label %8, label %9

8:                                                ; preds = %1
  br label %84

9:                                                ; preds = %1
  call void @llvm.lifetime.start.p0(i64 4, ptr %3) #15
  store i32 0, ptr %3, align 4, !tbaa !89
  br label %10

10:                                               ; preds = %39, %9
  %11 = load i32, ptr %3, align 4, !tbaa !89
  %12 = load ptr, ptr %2, align 8, !tbaa !131
  %13 = getelementptr inbounds nuw %struct.ggml_backend_sched, ptr %12, i32 0, i32 2
  %14 = load i32, ptr %13, align 4, !tbaa !143
  %15 = icmp slt i32 %11, %14
  br i1 %15, label %17, label %16

16:                                               ; preds = %10
  store i32 2, ptr %4, align 4
  call void @llvm.lifetime.end.p0(i64 4, ptr %3) #15
  br label %42

17:                                               ; preds = %10
  call void @llvm.lifetime.start.p0(i64 4, ptr %5) #15
  store i32 0, ptr %5, align 4, !tbaa !89
  br label %18

18:                                               ; preds = %35, %17
  %19 = load i32, ptr %5, align 4, !tbaa !89
  %20 = load ptr, ptr %2, align 8, !tbaa !131
  %21 = getelementptr inbounds nuw %struct.ggml_backend_sched, ptr %20, i32 0, i32 17
  %22 = load i32, ptr %21, align 8, !tbaa !146
  %23 = icmp slt i32 %19, %22
  br i1 %23, label %25, label %24

24:                                               ; preds = %18
  store i32 5, ptr %4, align 4
  call void @llvm.lifetime.end.p0(i64 4, ptr %5) #15
  br label %38

25:                                               ; preds = %18
  %26 = load ptr, ptr %2, align 8, !tbaa !131
  %27 = getelementptr inbounds nuw %struct.ggml_backend_sched, ptr %26, i32 0, i32 19
  %28 = load i32, ptr %3, align 4, !tbaa !89
  %29 = sext i32 %28 to i64
  %30 = getelementptr inbounds [16 x [4 x ptr]], ptr %27, i64 0, i64 %29
  %31 = load i32, ptr %5, align 4, !tbaa !89
  %32 = sext i32 %31 to i64
  %33 = getelementptr inbounds [4 x ptr], ptr %30, i64 0, i64 %32
  %34 = load ptr, ptr %33, align 8, !tbaa !93
  call void @ggml_backend_event_free(ptr noundef %34)
  br label %35

35:                                               ; preds = %25
  %36 = load i32, ptr %5, align 4, !tbaa !89
  %37 = add nsw i32 %36, 1
  store i32 %37, ptr %5, align 4, !tbaa !89
  br label %18, !llvm.loop !166

38:                                               ; preds = %24
  br label %39

39:                                               ; preds = %38
  %40 = load i32, ptr %3, align 4, !tbaa !89
  %41 = add nsw i32 %40, 1
  store i32 %41, ptr %3, align 4, !tbaa !89
  br label %10, !llvm.loop !167

42:                                               ; preds = %16
  %43 = load ptr, ptr %2, align 8, !tbaa !131
  %44 = getelementptr inbounds nuw %struct.ggml_backend_sched, ptr %43, i32 0, i32 5
  %45 = load ptr, ptr %44, align 8, !tbaa !163
  call void @ggml_gallocr_free(ptr noundef %45)
  %46 = load ptr, ptr %2, align 8, !tbaa !131
  %47 = getelementptr inbounds nuw %struct.ggml_backend_sched, ptr %46, i32 0, i32 22
  %48 = load ptr, ptr %47, align 8, !tbaa !168
  call void @ggml_free(ptr noundef %48)
  %49 = load ptr, ptr %2, align 8, !tbaa !131
  %50 = getelementptr inbounds nuw %struct.ggml_backend_sched, ptr %49, i32 0, i32 6
  call void @ggml_hash_set_free(ptr noundef %50)
  %51 = load ptr, ptr %2, align 8, !tbaa !131
  %52 = getelementptr inbounds nuw %struct.ggml_backend_sched, ptr %51, i32 0, i32 14
  %53 = load ptr, ptr %52, align 8, !tbaa !159
  call void @free(ptr noundef %53) #15
  %54 = load ptr, ptr %2, align 8, !tbaa !131
  %55 = getelementptr inbounds nuw %struct.ggml_backend_sched, ptr %54, i32 0, i32 7
  %56 = load ptr, ptr %55, align 8, !tbaa !151
  call void @free(ptr noundef %56) #15
  %57 = load ptr, ptr %2, align 8, !tbaa !131
  %58 = getelementptr inbounds nuw %struct.ggml_backend_sched, ptr %57, i32 0, i32 8
  %59 = load ptr, ptr %58, align 8, !tbaa !152
  call void @free(ptr noundef %59) #15
  %60 = load ptr, ptr %2, align 8, !tbaa !131
  %61 = getelementptr inbounds nuw %struct.ggml_backend_sched, ptr %60, i32 0, i32 9
  %62 = load ptr, ptr %61, align 8, !tbaa !153
  call void @free(ptr noundef %62) #15
  %63 = load ptr, ptr %2, align 8, !tbaa !131
  %64 = getelementptr inbounds nuw %struct.ggml_backend_sched, ptr %63, i32 0, i32 10
  %65 = load ptr, ptr %64, align 8, !tbaa !154
  call void @free(ptr noundef %65) #15
  %66 = load ptr, ptr %2, align 8, !tbaa !131
  %67 = getelementptr inbounds nuw %struct.ggml_backend_sched, ptr %66, i32 0, i32 11
  %68 = load ptr, ptr %67, align 8, !tbaa !155
  call void @free(ptr noundef %68) #15
  %69 = load ptr, ptr %2, align 8, !tbaa !131
  %70 = getelementptr inbounds nuw %struct.ggml_backend_sched, ptr %69, i32 0, i32 12
  %71 = load ptr, ptr %70, align 8, !tbaa !156
  call void @free(ptr noundef %71) #15
  %72 = load ptr, ptr %2, align 8, !tbaa !131
  %73 = getelementptr inbounds nuw %struct.ggml_backend_sched, ptr %72, i32 0, i32 25
  %74 = load ptr, ptr %73, align 8, !tbaa !158
  call void @free(ptr noundef %74) #15
  %75 = load ptr, ptr %2, align 8, !tbaa !131
  %76 = getelementptr inbounds nuw %struct.ggml_backend_sched, ptr %75, i32 0, i32 13
  %77 = getelementptr inbounds nuw %struct.ggml_cgraph, ptr %76, i32 0, i32 3
  %78 = load ptr, ptr %77, align 8, !tbaa !169
  call void @free(ptr noundef %78) #15
  %79 = load ptr, ptr %2, align 8, !tbaa !131
  %80 = getelementptr inbounds nuw %struct.ggml_backend_sched, ptr %79, i32 0, i32 13
  %81 = getelementptr inbounds nuw %struct.ggml_cgraph, ptr %80, i32 0, i32 6
  %82 = load ptr, ptr %81, align 8, !tbaa !170
  call void @free(ptr noundef %82) #15
  %83 = load ptr, ptr %2, align 8, !tbaa !131
  call void @free(ptr noundef %83) #15
  br label %84

84:                                               ; preds = %42, %8
  ret void
}