; Function Attrs: mustprogress uwtable
define void @ggml_backend_sched_free(ptr noundef %0) local_unnamed_addr #0 {
  %2 = icmp eq ptr %0, null
  br i1 %2, label %55, label %.preheader25

.preheader25:                                     ; preds = %1
  %3 = getelementptr inbounds nuw i8, ptr %0, i64 4
  %4 = load i32, ptr %3, align 4, !tbaa !115
  %5 = icmp sgt i32 %4, 0
  br i1 %5, label %.preheader.lr.ph, label %._crit_edge28

.preheader.lr.ph:                                 ; preds = %.preheader25
  %6 = getelementptr inbounds nuw i8, ptr %0, i64 440
  %7 = getelementptr inbounds nuw i8, ptr %0, i64 448
  %8 = load i32, ptr %6, align 8, !tbaa !116
  %9 = icmp sgt i32 %8, 0
  br i1 %9, label %.preheader, label %._crit_edge28

.preheader:                                       ; preds = %.preheader.lr.ph, %._crit_edge
  %10 = phi i32 [ %39, %._crit_edge ], [ %4, %.preheader.lr.ph ]
  %11 = phi i32 [ %40, %._crit_edge ], [ %8, %.preheader.lr.ph ]
  %12 = phi i32 [ %41, %._crit_edge ], [ %8, %.preheader.lr.ph ]
  %indvars.iv31 = phi i64 [ %indvars.iv.next32, %._crit_edge ], [ 0, %.preheader.lr.ph ]
  %13 = icmp sgt i32 %12, 0
  br i1 %13, label %.lr.ph, label %._crit_edge

._crit_edge28:                                    ; preds = %._crit_edge, %.preheader.lr.ph, %.preheader25
  %14 = getelementptr inbounds nuw i8, ptr %0, i64 264
  %15 = load ptr, ptr %14, align 8, !tbaa !131
  tail call void @ggml_gallocr_free(ptr noundef %15)
  %16 = getelementptr inbounds nuw i8, ptr %0, i64 1048
  %17 = load ptr, ptr %16, align 8, !tbaa !142
  tail call void @ggml_free(ptr noundef %17)
  %18 = getelementptr inbounds nuw i8, ptr %0, i64 272
  tail call void @ggml_hash_set_free(ptr noundef nonnull %18)
  %19 = getelementptr inbounds nuw i8, ptr %0, i64 424
  %20 = load ptr, ptr %19, align 8, !tbaa !129
  tail call void @free(ptr noundef %20) #26
  %21 = getelementptr inbounds nuw i8, ptr %0, i64 296
  %22 = load ptr, ptr %21, align 8, !tbaa !121
  tail call void @free(ptr noundef %22) #26
  %23 = getelementptr inbounds nuw i8, ptr %0, i64 304
  %24 = load ptr, ptr %23, align 8, !tbaa !122
  tail call void @free(ptr noundef %24) #26
  %25 = getelementptr inbounds nuw i8, ptr %0, i64 312
  %26 = load ptr, ptr %25, align 8, !tbaa !123
  tail call void @free(ptr noundef %26) #26
  %27 = getelementptr inbounds nuw i8, ptr %0, i64 320
  %28 = load ptr, ptr %27, align 8, !tbaa !124
  tail call void @free(ptr noundef %28) #26
  %29 = getelementptr inbounds nuw i8, ptr %0, i64 328
  %30 = load ptr, ptr %29, align 8, !tbaa !125
  tail call void @free(ptr noundef %30) #26
  %31 = getelementptr inbounds nuw i8, ptr %0, i64 336
  %32 = load ptr, ptr %31, align 8, !tbaa !126
  tail call void @free(ptr noundef %32) #26
  %33 = getelementptr inbounds nuw i8, ptr %0, i64 1072
  %34 = load ptr, ptr %33, align 8, !tbaa !128
  tail call void @free(ptr noundef %34) #26
  %35 = getelementptr inbounds nuw i8, ptr %0, i64 360
  %36 = load ptr, ptr %35, align 8, !tbaa !143
  tail call void @free(ptr noundef %36) #26
  %37 = getelementptr inbounds nuw i8, ptr %0, i64 384
  %38 = load ptr, ptr %37, align 8, !tbaa !144
  tail call void @free(ptr noundef %38) #26
  tail call void @free(ptr noundef nonnull %0) #26
  br label %55

._crit_edge.loopexit:                             ; preds = %ggml_backend_event_free.exit
  %.pre34 = load i32, ptr %3, align 4, !tbaa !115
  br label %._crit_edge

._crit_edge:                                      ; preds = %._crit_edge.loopexit, %.preheader
  %39 = phi i32 [ %.pre34, %._crit_edge.loopexit ], [ %10, %.preheader ]
  %40 = phi i32 [ %52, %._crit_edge.loopexit ], [ %11, %.preheader ]
  %41 = phi i32 [ %52, %._crit_edge.loopexit ], [ %12, %.preheader ]
  %indvars.iv.next32 = add nuw nsw i64 %indvars.iv31, 1
  %42 = sext i32 %39 to i64
  %43 = icmp slt i64 %indvars.iv.next32, %42
  br i1 %43, label %.preheader, label %._crit_edge28, !llvm.loop !145

.lr.ph:                                           ; preds = %.preheader, %ggml_backend_event_free.exit
  %44 = phi i32 [ %52, %ggml_backend_event_free.exit ], [ %11, %.preheader ]
  %indvars.iv = phi i64 [ %indvars.iv.next, %ggml_backend_event_free.exit ], [ 0, %.preheader ]
  %45 = getelementptr inbounds nuw [16 x [4 x ptr]], ptr %7, i64 0, i64 %indvars.iv31, i64 %indvars.iv
  %46 = load ptr, ptr %45, align 8, !tbaa !137
  %47 = icmp eq ptr %46, null
  br i1 %47, label %ggml_backend_event_free.exit, label %48

48:                                               ; preds = %.lr.ph
  %49 = load ptr, ptr %46, align 8, !tbaa !79
  %50 = getelementptr inbounds nuw i8, ptr %49, i64 104
  %51 = load ptr, ptr %50, align 8, !tbaa !81
  tail call void %51(ptr noundef %49, ptr noundef nonnull %46)
  %.pre = load i32, ptr %6, align 8, !tbaa !116
  br label %ggml_backend_event_free.exit

ggml_backend_event_free.exit:                     ; preds = %.lr.ph, %48
  %52 = phi i32 [ %44, %.lr.ph ], [ %.pre, %48 ]
  %indvars.iv.next = add nuw nsw i64 %indvars.iv, 1
  %53 = sext i32 %52 to i64
  %54 = icmp slt i64 %indvars.iv.next, %53
  br i1 %54, label %.lr.ph, label %._crit_edge.loopexit, !llvm.loop !146

55:                                               ; preds = %1, %._crit_edge28
  ret void
}